target datalayout = "e-m:e-p270:32:32-p271:32:32-p272:64:64-i64:64-i128:128-f80:128-n8:16:32:64-S128"
target triple = "x86_64-pc-linux-gnu"

%"struct.faiss::IndexIVFPQFastScan" = type { %"struct.faiss::IndexIVFFastScan", %"struct.faiss::ProductQuantizer", i32, %"struct.faiss::AlignedTable" }
%"struct.faiss::IndexIVFFastScan" = type { %"struct.faiss::IndexIVF.base", i32, i64, i64, i64, i64, i32, i32, i32, i64, ptr }
%"struct.faiss::IndexIVF.base" = type <{ %"struct.faiss::Index.base", [4 x i8], %"struct.faiss::IndexIVFInterface", ptr, i8, [7 x i8], i64, i32, i32, %"struct.faiss::DirectMap", i8 }>
%"struct.faiss::Index.base" = type <{ ptr, i32, [4 x i8], i64, i8, i8, [2 x i8], i32, float }>
%"struct.faiss::IndexIVFInterface" = type { ptr, %"struct.faiss::Level1Quantizer", i64, i64 }
%"struct.faiss::Level1Quantizer" = type { ptr, i64, i8, i8, %"struct.faiss::ClusteringParameters", ptr }
%"struct.faiss::ClusteringParameters" = type { i32, i32, i8, i8, i8, i8, i8, i32, i32, i32, i64 }
%"struct.faiss::DirectMap" = type { i32, %"class.std::vector", %"class.std::unordered_map" }
%"class.std::vector" = type { %"struct.std::_Vector_base" }
%"struct.std::_Vector_base" = type { %"struct.std::_Vector_base<long, std::allocator<long>>::_Vector_impl" }
%"struct.std::_Vector_base<long, std::allocator<long>>::_Vector_impl" = type { %"struct.std::_Vector_base<long, std::allocator<long>>::_Vector_impl_data" }
%"struct.std::_Vector_base<long, std::allocator<long>>::_Vector_impl_data" = type { ptr, ptr, ptr }
%"class.std::unordered_map" = type { %"class.std::_Hashtable" }
%"class.std::_Hashtable" = type { ptr, i64, %"struct.std::__detail::_Hash_node_base", i64, %"struct.std::__detail::_Prime_rehash_policy", ptr }
%"struct.std::__detail::_Hash_node_base" = type { ptr }
%"struct.std::__detail::_Prime_rehash_policy" = type { float, i64 }
%"struct.faiss::ProductQuantizer" = type { %"struct.faiss::Quantizer", i64, i64, i64, i64, i8, i32, %"struct.faiss::ClusteringParameters", ptr, %"class.std::vector.5", %"class.std::vector.5", %"class.std::vector.5", %"class.std::vector.5" }
%"struct.faiss::Quantizer" = type { ptr, i64, i64 }
%"class.std::vector.5" = type { %"struct.std::_Vector_base.6" }
%"struct.std::_Vector_base.6" = type { %"struct.std::_Vector_base<float, std::allocator<float>>::_Vector_impl" }
%"struct.std::_Vector_base<float, std::allocator<float>>::_Vector_impl" = type { %"struct.std::_Vector_base<float, std::allocator<float>>::_Vector_impl_data" }
%"struct.std::_Vector_base<float, std::allocator<float>>::_Vector_impl_data" = type { ptr, ptr, ptr }
%"struct.faiss::AlignedTable" = type { %"struct.faiss::AlignedTableTightAlloc", i64 }
%"struct.faiss::AlignedTableTightAlloc" = type { ptr, i64 }
%"struct.faiss::IndexIVF" = type <{ %"struct.faiss::Index.base", [4 x i8], %"struct.faiss::IndexIVFInterface", ptr, i8, [7 x i8], i64, i32, i32, %"struct.faiss::DirectMap", i8, [7 x i8] }>

; Function Attrs: mustprogress nounwind uwtable
define linkonce_odr void @_ZN5faiss22AlignedTableTightAllocIfLi32EED2Ev(ptr noundef nonnull align 8 dereferenceable(16) %0) unnamed_addr #0 comdat align 2 {
  %2 = alloca ptr, align 8
  store ptr %0, ptr %2, align 8
  %3 = load ptr, ptr %2, align 8
  %4 = getelementptr inbounds %"struct.faiss::AlignedTableTightAlloc", ptr %3, i32 0, i32 0
  %5 = load ptr, ptr %4, align 8
  call void @free(ptr noundef %5) #14
  ret void
}

; Function Attrs: mustprogress nounwind uwtable
define linkonce_odr void @_ZN5faiss22AlignedTableTightAllocIfLi32EEC2Ev(ptr noundef nonnull align 8 dereferenceable(16) %0) unnamed_addr #0 comdat align 2 {
  %2 = alloca ptr, align 8
  store ptr %0, ptr %2, align 8
  %3 = load ptr, ptr %2, align 8
  %4 = getelementptr inbounds %"struct.faiss::AlignedTableTightAlloc", ptr %3, i32 0, i32 0
  store ptr null, ptr %4, align 8
  %5 = getelementptr inbounds %"struct.faiss::AlignedTableTightAlloc", ptr %3, i32 0, i32 1
  store i64 0, ptr %5, align 8
  ret void
}

; Function Attrs: mustprogress nounwind uwtable
define linkonce_odr void @_ZN5faiss12AlignedTableIfLi32EED2Ev(ptr noundef nonnull align 8 dereferenceable(24) %0) unnamed_addr #0 comdat align 2 {
  %2 = alloca ptr, align 8
  store ptr %0, ptr %2, align 8
  %3 = load ptr, ptr %2, align 8
  %4 = getelementptr inbounds %"struct.faiss::AlignedTable", ptr %3, i32 0, i32 0
  call void @_ZN5faiss22AlignedTableTightAllocIfLi32EED2Ev(ptr noundef nonnull align 8 dereferenceable(16) %4) #14
  ret void
}

; Function Attrs: mustprogress uwtable
define linkonce_odr void @_ZN5faiss12AlignedTableIfLi32EEC2Ev(ptr noundef nonnull align 8 dereferenceable(24) %0) unnamed_addr #2 comdat align 2 {
  %2 = alloca ptr, align 8
  store ptr %0, ptr %2, align 8
  %3 = load ptr, ptr %2, align 8
  %4 = getelementptr inbounds %"struct.faiss::AlignedTable", ptr %3, i32 0, i32 0
  call void @_ZN5faiss22AlignedTableTightAllocIfLi32EEC2Ev(ptr noundef nonnull align 8 dereferenceable(16) %4)
  %5 = getelementptr inbounds %"struct.faiss::AlignedTable", ptr %3, i32 0, i32 1
  store i64 0, ptr %5, align 8
  ret void
}

; Function Attrs: mustprogress uwtable
define void @_ZN5faiss18IndexIVFPQFastScanC2EPNS_5IndexEmmmmNS_10MetricTypeEi(ptr noundef nonnull align 8 dereferenceable(568) %0, ptr noundef %1, i64 noundef %2, i64 noundef %3, i64 noundef %4, i64 noundef %5, i32 noundef %6, i32 noundef %7) unnamed_addr #2 align 2 personality ptr @__gxx_personality_v0 {
  %9 = alloca ptr, align 8
  %10 = alloca ptr, align 8
  %11 = alloca i64, align 8
  %12 = alloca i64, align 8
  %13 = alloca i64, align 8
  %14 = alloca i64, align 8
  %15 = alloca i32, align 4
  %16 = alloca i32, align 4
  %17 = alloca ptr, align 8
  %18 = alloca i32, align 4
  store ptr %0, ptr %9, align 8
  store ptr %1, ptr %10, align 8
  store i64 %2, ptr %11, align 8
  store i64 %3, ptr %12, align 8
  store i64 %4, ptr %13, align 8
  store i64 %5, ptr %14, align 8
  store i32 %6, ptr %15, align 4
  store i32 %7, ptr %16, align 4
  %19 = load ptr, ptr %9, align 8
  %20 = load ptr, ptr %10, align 8
  %21 = load i64, ptr %11, align 8
  %22 = load i64, ptr %12, align 8
  %23 = load i32, ptr %15, align 4
  call void @_ZN5faiss16IndexIVFFastScanC2EPNS_5IndexEmmmNS_10MetricTypeE(ptr noundef nonnull align 8 dereferenceable(328) %19, ptr noundef %20, i64 noundef %21, i64 noundef %22, i64 noundef 0, i32 noundef %23)
  store ptr getelementptr inbounds ({ [37 x ptr], [6 x ptr] }, ptr @_ZTVN5faiss18IndexIVFPQFastScanE, i32 0, i32 0, i32 2), ptr %19, align 8
  %24 = getelementptr inbounds i8, ptr %19, i64 40
  store ptr getelementptr inbounds ({ [37 x ptr], [6 x ptr] }, ptr @_ZTVN5faiss18IndexIVFPQFastScanE, i32 0, i32 1, i32 2), ptr %24, align 8
  %25 = getelementptr inbounds %"struct.faiss::IndexIVFPQFastScan", ptr %19, i32 0, i32 1
  %26 = load i64, ptr %11, align 8
  %27 = load i64, ptr %13, align 8
  %28 = load i64, ptr %14, align 8
  invoke void @_ZN5faiss16ProductQuantizerC1Emmm(ptr noundef nonnull align 8 dereferenceable(208) %25, i64 noundef %26, i64 noundef %27, i64 noundef %28)
          to label %29 unwind label %40

29:                                               ; preds = %8
  %30 = getelementptr inbounds %"struct.faiss::IndexIVFPQFastScan", ptr %19, i32 0, i32 2
  store i32 0, ptr %30, align 8
  %31 = getelementptr inbounds %"struct.faiss::IndexIVFPQFastScan", ptr %19, i32 0, i32 3
  invoke void @_ZN5faiss12AlignedTableIfLi32EEC2Ev(ptr noundef nonnull align 8 dereferenceable(24) %31)
          to label %32 unwind label %44

32:                                               ; preds = %29
  %33 = getelementptr inbounds %"struct.faiss::IndexIVF", ptr %19, i32 0, i32 10
  store i8 0, ptr %33, align 8
  %34 = load i64, ptr %13, align 8
  %35 = load i64, ptr %14, align 8
  %36 = load i64, ptr %12, align 8
  %37 = load i32, ptr %15, align 4
  %38 = load i32, ptr %16, align 4
  invoke void @_ZN5faiss16IndexIVFFastScan13init_fastscanEmmmNS_10MetricTypeEi(ptr noundef nonnull align 8 dereferenceable(328) %19, i64 noundef %34, i64 noundef %35, i64 noundef %36, i32 noundef %37, i32 noundef %38)
          to label %39 unwind label %48

39:                                               ; preds = %32
  ret void

40:                                               ; preds = %8
  %41 = landingpad { ptr, i32 }
          cleanup
  %42 = extractvalue { ptr, i32 } %41, 0
  store ptr %42, ptr %17, align 8
  %43 = extractvalue { ptr, i32 } %41, 1
  store i32 %43, ptr %18, align 4
  br label %53

44:                                               ; preds = %29
  %45 = landingpad { ptr, i32 }
          cleanup
  %46 = extractvalue { ptr, i32 } %45, 0
  store ptr %46, ptr %17, align 8
  %47 = extractvalue { ptr, i32 } %45, 1
  store i32 %47, ptr %18, align 4
  br label %52

48:                                               ; preds = %32
  %49 = landingpad { ptr, i32 }
          cleanup
  %50 = extractvalue { ptr, i32 } %49, 0
  store ptr %50, ptr %17, align 8
  %51 = extractvalue { ptr, i32 } %49, 1
  store i32 %51, ptr %18, align 4
  call void @_ZN5faiss12AlignedTableIfLi32EED2Ev(ptr noundef nonnull align 8 dereferenceable(24) %31) #14
  br label %52

52:                                               ; preds = %48, %44
  call void @_ZN5faiss16ProductQuantizerD2Ev(ptr noundef nonnull align 8 dereferenceable(208) %25) #14
  br label %53

53:                                               ; preds = %52, %40
  call void @_ZN5faiss16IndexIVFFastScanD2Ev(ptr noundef nonnull align 8 dereferenceable(328) %19) #14
  br label %54

54:                                               ; preds = %53
  %55 = load ptr, ptr %17, align 8
  %56 = load i32, ptr %18, align 4
  %57 = insertvalue { ptr, i32 } poison, ptr %55, 0
  %58 = insertvalue { ptr, i32 } %57, i32 %56, 1
  resume { ptr, i32 } %58
}