; Function Attrs: mustprogress uwtable
define void @_ZN5faiss18IndexIVFPQFastScanC2EPNS_5IndexEmmmmNS_10MetricTypeEi(ptr noundef nonnull align 8 dereferenceable(568) %0, ptr noundef %1, i64 noundef %2, i64 noundef %3, i64 noundef %4, i64 noundef %5, i32 noundef %6, i32 noundef %7) unnamed_addr #2 align 2 personality ptr @__gxx_personality_v0 {
  tail call void @_ZN5faiss16IndexIVFFastScanC2EPNS_5IndexEmmmNS_10MetricTypeE(ptr noundef nonnull align 8 dereferenceable(328) %0, ptr noundef %1, i64 noundef %2, i64 noundef %3, i64 noundef 0, i32 noundef %6)
  store ptr getelementptr inbounds ({ [37 x ptr], [6 x ptr] }, ptr @_ZTVN5faiss18IndexIVFPQFastScanE, i64 0, i32 0, i64 2), ptr %0, align 8
  %9 = getelementptr inbounds i8, ptr %0, i64 40
  store ptr getelementptr inbounds ({ [37 x ptr], [6 x ptr] }, ptr @_ZTVN5faiss18IndexIVFPQFastScanE, i64 0, i32 1, i64 2), ptr %9, align 8
  %10 = getelementptr inbounds i8, ptr %0, i64 328
  invoke void @_ZN5faiss16ProductQuantizerC1Emmm(ptr noundef nonnull align 8 dereferenceable(208) %10, i64 noundef %2, i64 noundef %4, i64 noundef %5)
          to label %11 unwind label %16

11:                                               ; preds = %8
  %12 = getelementptr inbounds i8, ptr %0, i64 536
  store i32 0, ptr %12, align 8
  %13 = getelementptr inbounds i8, ptr %0, i64 544
  tail call void @llvm.memset.p0.i64(ptr noundef nonnull align 8 dereferenceable(24) %13, i8 0, i64 24, i1 false)
  %14 = getelementptr inbounds i8, ptr %0, i64 256
  store i8 0, ptr %14, align 8
  invoke void @_ZN5faiss16IndexIVFFastScan13init_fastscanEmmmNS_10MetricTypeEi(ptr noundef nonnull align 8 dereferenceable(328) %0, i64 noundef %4, i64 noundef %5, i64 noundef %3, i32 noundef %6, i32 noundef %7)
          to label %15 unwind label %18

15:                                               ; preds = %11
  ret void

16:                                               ; preds = %8
  %17 = landingpad { ptr, i32 }
          cleanup
  br label %21

18:                                               ; preds = %11
  %19 = landingpad { ptr, i32 }
          cleanup
  %20 = load ptr, ptr %13, align 8
  tail call void @free(ptr noundef %20) #18
  tail call void @_ZN5faiss16ProductQuantizerD2Ev(ptr noundef nonnull align 8 dereferenceable(208) %10) #18
  br label %21

21:                                               ; preds = %18, %16
  %.pn.pn = phi { ptr, i32 } [ %19, %18 ], [ %17, %16 ]
  tail call void @_ZN5faiss16IndexIVFFastScanD2Ev(ptr noundef nonnull align 8 dereferenceable(328) %0) #18
  resume { ptr, i32 } %.pn.pn
}